; Function Attrs: cold mustprogress nofree norecurse nosync nounwind optsize willreturn memory(argmem: write) uwtable
define internal noundef i32 @decode_init(ptr noundef writeonly captures(none) initializes((136, 140), (144, 160)) %0) #0 {
  %2 = getelementptr inbounds nuw i8, ptr %0, i64 136
  store i32 187, ptr %2, align 8, !tbaa !4
  %3 = getelementptr inbounds nuw i8, ptr %0, i64 156
  store i32 2, ptr %3, align 4, !tbaa !27
  %4 = getelementptr inbounds nuw i8, ptr %0, i64 152
  store i32 0, ptr %4, align 8, !tbaa !28
  %5 = getelementptr inbounds nuw i8, ptr %0, i64 144
  store i32 1, ptr %5, align 8, !tbaa !29
  %6 = getelementptr inbounds nuw i8, ptr %0, i64 148
  store i32 13, ptr %6, align 4, !tbaa !30
  ret i32 0
}